; Function Attrs: mustprogress nofree norecurse nosync nounwind willreturn memory(readwrite, inaccessiblemem: none) uwtable
define noundef i32 @PMIx_tool_set_server_module(ptr noundef readonly captures(none) %0) local_unnamed_addr #13 {
  tail call void @llvm.memcpy.p0.p0.i64(ptr noundef nonnull align 8 dereferenceable(240) @pmix_host_server, ptr noundef nonnull align 8 dereferenceable(240) %0, i64 240, i1 false), !tbaa.struct !205
  %2 = load ptr, ptr getelementptr inbounds nuw (i8, ptr @pmix_globals, i64 328), align 8, !tbaa !88
  %3 = getelementptr inbounds nuw i8, ptr %2, i64 136
  %4 = load i32, ptr %3, align 8, !tbaa !89
  %5 = or i32 %4, 2
  store i32 %5, ptr %3, align 8, !tbaa !89
  ret i32 0
}